target datalayout = "e-m:e-p270:32:32-p271:32:32-p272:64:64-i64:64-i128:128-f80:128-n8:16:32:64-S128"
target triple = "x86_64-pc-linux-gnu"

%class.Blocks = type <{ %"class.std::set", ptr, i32, [4 x i8] }>
%"class.std::set" = type { %"class.std::_Rb_tree" }
%"class.std::_Rb_tree" = type { %"struct.std::_Rb_tree<Block *, Block *, std::_Identity<Block *>, std::less<Block *>>::_Rb_tree_impl" }
%"struct.std::_Rb_tree<Block *, Block *, std::_Identity<Block *>, std::less<Block *>>::_Rb_tree_impl" = type { %"struct.std::_Rb_tree_key_compare", %"struct.std::_Rb_tree_header" }
%"struct.std::_Rb_tree_key_compare" = type { %"struct.std::less" }
%"struct.std::less" = type { i8 }
%"struct.std::_Rb_tree_header" = type { %"struct.std::_Rb_tree_node_base", i64 }
%"struct.std::_Rb_tree_node_base" = type { i32, ptr, ptr, ptr }
%struct.VPSC = type <{ ptr, %class.Blocks, ptr, i32, [4 x i8] }>

; Function Attrs: mustprogress uwtable
define void @_ZN7IncVPSC5solveEv(ptr noundef nonnull align 8 dereferenceable(112) %0) unnamed_addr #4 align 2 {
  %2 = alloca ptr, align 8
  %3 = alloca double, align 8
  %4 = alloca double, align 8
  store ptr %0, ptr %2, align 8
  %5 = load ptr, ptr %2, align 8
  %6 = getelementptr inbounds %struct.VPSC, ptr %5, i32 0, i32 1
  %7 = call noundef double @_ZN6Blocks4costEv(ptr noundef nonnull align 8 dereferenceable(60) %6)
  store double %7, ptr %4, align 8
  br label %8

8:                                                ; preds = %15, %1
  %9 = load double, ptr %4, align 8
  store double %9, ptr %3, align 8
  %10 = load ptr, ptr %5, align 8
  %11 = getelementptr inbounds ptr, ptr %10, i64 0
  %12 = load ptr, ptr %11, align 8
  call void %12(ptr noundef nonnull align 8 dereferenceable(112) %5)
  call void @_ZN7IncVPSC11splitBlocksEv(ptr noundef nonnull align 8 dereferenceable(112) %5)
  %13 = getelementptr inbounds %struct.VPSC, ptr %5, i32 0, i32 1
  %14 = call noundef double @_ZN6Blocks4costEv(ptr noundef nonnull align 8 dereferenceable(60) %13)
  store double %14, ptr %4, align 8
  br label %15

15:                                               ; preds = %8
  %16 = load double, ptr %3, align 8
  %17 = load double, ptr %4, align 8
  %18 = fsub double %16, %17
  %19 = call double @llvm.fabs.f64(double %18)
  %20 = fcmp ogt double %19, 1.000000e-04
  br i1 %20, label %8, label %21, !llvm.loop !8

21:                                               ; preds = %15
  ret void
}