; Function Attrs: mustprogress uwtable
define void @_ZN7IncVPSC5solveEv(ptr noundef nonnull align 8 dereferenceable(112) %0) unnamed_addr #3 align 2 {
  %2 = getelementptr inbounds i8, ptr %0, i64 8
  %3 = tail call noundef double @_ZN6Blocks4costEv(ptr noundef nonnull align 8 dereferenceable(60) %2)
  br label %4

4:                                                ; preds = %4, %1
  %.0 = phi double [ %3, %1 ], [ %7, %4 ]
  %5 = load ptr, ptr %0, align 8
  %6 = load ptr, ptr %5, align 8
  tail call void %6(ptr noundef nonnull align 8 dereferenceable(112) %0)
  tail call void @_ZN7IncVPSC11splitBlocksEv(ptr noundef nonnull align 8 dereferenceable(112) %0)
  %7 = tail call noundef double @_ZN6Blocks4costEv(ptr noundef nonnull align 8 dereferenceable(60) %2)
  %8 = fsub double %.0, %7
  %9 = tail call double @llvm.fabs.f64(double %8)
  %10 = fcmp ogt double %9, 1.000000e-04
  br i1 %10, label %4, label %11, !llvm.loop !8

11:                                               ; preds = %4
  ret void
}